target datalayout = "e-m:e-p270:32:32-p271:32:32-p272:64:64-i64:64-i128:128-f80:128-n8:16:32:64-S128"
target triple = "x86_64-pc-linux-gnu"

%class.QColor = type <{ i32, %"union.QColor::CT", [2 x i8] }>
%"union.QColor::CT" = type { %struct.anon }
%struct.anon = type { i16, i16, i16, i16, i16 }
%struct.color_t = type { i16, i16, i16 }

; Function Attrs: mustprogress nounwind uwtable
define i48 @_ZN10ColorUtils8toColorTE6QColor(i64 %0, i64 %1) #2 align 2 {
  %3 = alloca %struct.color_t, align 2
  %4 = alloca %class.QColor, align 4
  %5 = alloca i48, align 8
  %6 = getelementptr inbounds { i64, i64 }, ptr %4, i32 0, i32 0
  store i64 %0, ptr %6, align 4
  %7 = getelementptr inbounds { i64, i64 }, ptr %4, i32 0, i32 1
  store i64 %1, ptr %7, align 4
  %8 = call noundef i32 @_ZNK6QColor3redEv(ptr noundef nonnull align 4 dereferenceable(14) %4) #6
  %9 = shl i32 %8, 8
  %10 = call noundef i32 @_ZNK6QColor3redEv(ptr noundef nonnull align 4 dereferenceable(14) %4) #6
  %11 = or i32 %9, %10
  %12 = trunc i32 %11 to i16
  %13 = getelementptr inbounds %struct.color_t, ptr %3, i32 0, i32 0
  store i16 %12, ptr %13, align 2
  %14 = call noundef i32 @_ZNK6QColor5greenEv(ptr noundef nonnull align 4 dereferenceable(14) %4) #6
  %15 = shl i32 %14, 8
  %16 = call noundef i32 @_ZNK6QColor5greenEv(ptr noundef nonnull align 4 dereferenceable(14) %4) #6
  %17 = or i32 %15, %16
  %18 = trunc i32 %17 to i16
  %19 = getelementptr inbounds %struct.color_t, ptr %3, i32 0, i32 1
  store i16 %18, ptr %19, align 2
  %20 = call noundef i32 @_ZNK6QColor4blueEv(ptr noundef nonnull align 4 dereferenceable(14) %4) #6
  %21 = shl i32 %20, 8
  %22 = call noundef i32 @_ZNK6QColor4blueEv(ptr noundef nonnull align 4 dereferenceable(14) %4) #6
  %23 = or i32 %21, %22
  %24 = trunc i32 %23 to i16
  %25 = getelementptr inbounds %struct.color_t, ptr %3, i32 0, i32 2
  store i16 %24, ptr %25, align 2
  call void @llvm.memcpy.p0.p0.i64(ptr align 8 %5, ptr align 2 %3, i64 6, i1 false)
  %26 = load i48, ptr %5, align 8
  ret i48 %26
}