; Function Attrs: mustprogress nounwind uwtable
define i48 @_ZN10ColorUtils8toColorTE6QColor(i64 %0, i64 %1) local_unnamed_addr #5 align 2 {
  %3 = alloca %class.QColor, align 8
  store i64 %0, ptr %3, align 8
  %4 = getelementptr inbounds i8, ptr %3, i64 8
  store i64 %1, ptr %4, align 8
  %5 = call noundef i32 @_ZNK6QColor3redEv(ptr noundef nonnull align 4 dereferenceable(14) %3) #15
  %6 = shl i32 %5, 8
  %7 = call noundef i32 @_ZNK6QColor3redEv(ptr noundef nonnull align 4 dereferenceable(14) %3) #15
  %8 = or i32 %6, %7
  %9 = call noundef i32 @_ZNK6QColor5greenEv(ptr noundef nonnull align 4 dereferenceable(14) %3) #15
  %10 = call noundef i32 @_ZNK6QColor5greenEv(ptr noundef nonnull align 4 dereferenceable(14) %3) #15
  %11 = call noundef i32 @_ZNK6QColor4blueEv(ptr noundef nonnull align 4 dereferenceable(14) %3) #15
  %12 = shl i32 %11, 8
  %13 = call noundef i32 @_ZNK6QColor4blueEv(ptr noundef nonnull align 4 dereferenceable(14) %3) #15
  %14 = or i32 %12, %13
  %.mask = and i32 %14, 65535
  %.sroa.3.0.insert.ext = zext nneg i32 %.mask to i48
  %.sroa.3.0.insert.shift = shl nuw i48 %.sroa.3.0.insert.ext, 32
  %15 = shl i32 %9, 24
  %16 = shl i32 %10, 16
  %17 = or i32 %16, %15
  %.sroa.2.0.insert.shift = zext i32 %17 to i48
  %.sroa.2.0.insert.insert = or disjoint i48 %.sroa.3.0.insert.shift, %.sroa.2.0.insert.shift
  %.mask2 = and i32 %8, 65535
  %.sroa.0.0.insert.ext = zext nneg i32 %.mask2 to i48
  %.sroa.0.0.insert.insert = or disjoint i48 %.sroa.2.0.insert.insert, %.sroa.0.0.insert.ext
  ret i48 %.sroa.0.0.insert.insert
}